target datalayout = "e-m:e-p270:32:32-p271:32:32-p272:64:64-i64:64-i128:128-f80:128-n8:16:32:64-S128"
target triple = "x86_64-unknown-linux-gnu"

%struct.b2JointUserData = type { i64 }
%class.b2Joint = type { ptr, i32, ptr, ptr, %struct.b2JointEdge, %struct.b2JointEdge, ptr, ptr, i32, i8, i8, %struct.b2JointUserData }
%struct.b2JointEdge = type { ptr, ptr, ptr, ptr }

; Function Attrs: mustprogress uwtable
define void @_ZN7b2Joint7DestroyEPS_P16b2BlockAllocator(ptr noundef %joint, ptr noundef %allocator) #0 align 2 {
entry:
  %joint.addr = alloca ptr, align 8
  %allocator.addr = alloca ptr, align 8
  store ptr %joint, ptr %joint.addr, align 8
  store ptr %allocator, ptr %allocator.addr, align 8
  %0 = load ptr, ptr %joint.addr, align 8
  %vtable = load ptr, ptr %0, align 8
  %vfn = getelementptr inbounds ptr, ptr %vtable, i64 7
  %1 = load ptr, ptr %vfn, align 8
  call void %1(ptr noundef nonnull align 8 dereferenceable(128) %0) #7
  %2 = load ptr, ptr %joint.addr, align 8
  %m_type = getelementptr inbounds %class.b2Joint, ptr %2, i32 0, i32 1
  %3 = load i32, ptr %m_type, align 8
  switch i32 %3, label %sw.default [
    i32 3, label %sw.bb
    i32 5, label %sw.bb1
    i32 2, label %sw.bb2
    i32 1, label %sw.bb3
    i32 4, label %sw.bb4
    i32 6, label %sw.bb5
    i32 7, label %sw.bb6
    i32 8, label %sw.bb7
    i32 9, label %sw.bb8
    i32 10, label %sw.bb9
  ]

sw.bb:                                            ; preds = %entry
  %4 = load ptr, ptr %allocator.addr, align 8
  %5 = load ptr, ptr %joint.addr, align 8
  call void @_ZN16b2BlockAllocator4FreeEPvi(ptr noundef nonnull align 8 dereferenceable(128) %4, ptr noundef %5, i32 noundef 264)
  br label %sw.epilog

sw.bb1:                                           ; preds = %entry
  %6 = load ptr, ptr %allocator.addr, align 8
  %7 = load ptr, ptr %joint.addr, align 8
  call void @_ZN16b2BlockAllocator4FreeEPvi(ptr noundef nonnull align 8 dereferenceable(128) %6, ptr noundef %7, i32 noundef 232)
  br label %sw.epilog

sw.bb2:                                           ; preds = %entry
  %8 = load ptr, ptr %allocator.addr, align 8
  %9 = load ptr, ptr %joint.addr, align 8
  call void @_ZN16b2BlockAllocator4FreeEPvi(ptr noundef nonnull align 8 dereferenceable(128) %8, ptr noundef %9, i32 noundef 304)
  br label %sw.epilog

sw.bb3:                                           ; preds = %entry
  %10 = load ptr, ptr %allocator.addr, align 8
  %11 = load ptr, ptr %joint.addr, align 8
  call void @_ZN16b2BlockAllocator4FreeEPvi(ptr noundef nonnull align 8 dereferenceable(128) %10, ptr noundef %11, i32 noundef 272)
  br label %sw.epilog

sw.bb4:                                           ; preds = %entry
  %12 = load ptr, ptr %allocator.addr, align 8
  %13 = load ptr, ptr %joint.addr, align 8
  call void @_ZN16b2BlockAllocator4FreeEPvi(ptr noundef nonnull align 8 dereferenceable(128) %12, ptr noundef %13, i32 noundef 256)
  br label %sw.epilog

sw.bb5:                                           ; preds = %entry
  %14 = load ptr, ptr %allocator.addr, align 8
  %15 = load ptr, ptr %joint.addr, align 8
  call void @_ZN16b2BlockAllocator4FreeEPvi(ptr noundef nonnull align 8 dereferenceable(128) %14, ptr noundef %15, i32 noundef 360)
  br label %sw.epilog

sw.bb6:                                           ; preds = %entry
  %16 = load ptr, ptr %allocator.addr, align 8
  %17 = load ptr, ptr %joint.addr, align 8
  call void @_ZN16b2BlockAllocator4FreeEPvi(ptr noundef nonnull align 8 dereferenceable(128) %16, ptr noundef %17, i32 noundef 312)
  br label %sw.epilog

sw.bb7:                                           ; preds = %entry
  %18 = load ptr, ptr %allocator.addr, align 8
  %19 = load ptr, ptr %joint.addr, align 8
  call void @_ZN16b2BlockAllocator4FreeEPvi(ptr noundef nonnull align 8 dereferenceable(128) %18, ptr noundef %19, i32 noundef 272)
  br label %sw.epilog

sw.bb8:                                           ; preds = %entry
  %20 = load ptr, ptr %allocator.addr, align 8
  %21 = load ptr, ptr %joint.addr, align 8
  call void @_ZN16b2BlockAllocator4FreeEPvi(ptr noundef nonnull align 8 dereferenceable(128) %20, ptr noundef %21, i32 noundef 240)
  br label %sw.epilog

sw.bb9:                                           ; preds = %entry
  %22 = load ptr, ptr %allocator.addr, align 8
  %23 = load ptr, ptr %joint.addr, align 8
  call void @_ZN16b2BlockAllocator4FreeEPvi(ptr noundef nonnull align 8 dereferenceable(128) %22, ptr noundef %23, i32 noundef 256)
  br label %sw.epilog

sw.default:                                       ; preds = %entry
  br label %sw.epilog

sw.epilog:                                        ; preds = %sw.default, %sw.bb9, %sw.bb8, %sw.bb7, %sw.bb6, %sw.bb5, %sw.bb4, %sw.bb3, %sw.bb2, %sw.bb1, %sw.bb
  ret void
}