; Function Attrs: mustprogress uwtable
define void @_ZN7b2Joint7DestroyEPS_P16b2BlockAllocator(ptr noundef %joint, ptr noundef %allocator) local_unnamed_addr #1 align 2 {
entry:
  %vtable = load ptr, ptr %joint, align 8
  %vfn = getelementptr inbounds i8, ptr %vtable, i64 56
  %0 = load ptr, ptr %vfn, align 8
  tail call void %0(ptr noundef nonnull align 8 dereferenceable(128) %joint) #9
  %m_type = getelementptr inbounds i8, ptr %joint, i64 8
  %1 = load i32, ptr %m_type, align 8
  %switch.tableidx = add i32 %1, -1
  %2 = icmp ult i32 %switch.tableidx, 10
  br i1 %2, label %switch.lookup, label %sw.epilog

switch.lookup:                                    ; preds = %entry
  %3 = zext nneg i32 %switch.tableidx to i64
  %switch.gep = getelementptr inbounds [10 x i32], ptr @switch.table._ZN7b2Joint7DestroyEPS_P16b2BlockAllocator, i64 0, i64 %3
  %switch.load = load i32, ptr %switch.gep, align 4
  tail call void @_ZN16b2BlockAllocator4FreeEPvi(ptr noundef nonnull align 8 dereferenceable(128) %allocator, ptr noundef nonnull %joint, i32 noundef %switch.load)
  br label %sw.epilog

sw.epilog:                                        ; preds = %entry, %switch.lookup
  ret void
}